target datalayout = "e-m:e-p270:32:32-p271:32:32-p272:64:64-i64:64-i128:128-f80:128-n8:16:32:64-S128"
target triple = "x86_64-pc-linux-gnu"

%struct.diffstat_t = type { i32, i32, ptr }
%struct.diffstat_file = type { ptr, ptr, ptr, ptr, i8, i64, i64 }

; Function Attrs: nounwind uwtable
define internal void @free_diffstat_file(ptr noundef %0) #0 {
  %2 = alloca ptr, align 8
  store ptr %0, ptr %2, align 8, !tbaa !80
  %3 = load ptr, ptr %2, align 8, !tbaa !80
  %4 = getelementptr inbounds nuw %struct.diffstat_file, ptr %3, i32 0, i32 2
  %5 = load ptr, ptr %4, align 8, !tbaa !83
  call void @free(ptr noundef %5) #10
  %6 = load ptr, ptr %2, align 8, !tbaa !80
  %7 = getelementptr inbounds nuw %struct.diffstat_file, ptr %6, i32 0, i32 1
  %8 = load ptr, ptr %7, align 8, !tbaa !85
  call void @free(ptr noundef %8) #10
  %9 = load ptr, ptr %2, align 8, !tbaa !80
  %10 = getelementptr inbounds nuw %struct.diffstat_file, ptr %9, i32 0, i32 0
  %11 = load ptr, ptr %10, align 8, !tbaa !86
  call void @free(ptr noundef %11) #10
  %12 = load ptr, ptr %2, align 8, !tbaa !80
  call void @free(ptr noundef %12) #10
  ret void
}

; Function Attrs: nounwind uwtable
define dso_local void @free_diffstat_info(ptr noundef %0) #0 {
  %2 = alloca ptr, align 8
  %3 = alloca i32, align 4
  store ptr %0, ptr %2, align 8, !tbaa !74
  call void @llvm.lifetime.start.p0(i64 4, ptr %3) #10
  store i32 0, ptr %3, align 4, !tbaa !16
  br label %4

4:                                                ; preds = %18, %1
  %5 = load i32, ptr %3, align 4, !tbaa !16
  %6 = load ptr, ptr %2, align 8, !tbaa !74
  %7 = getelementptr inbounds nuw %struct.diffstat_t, ptr %6, i32 0, i32 0
  %8 = load i32, ptr %7, align 8, !tbaa !76
  %9 = icmp slt i32 %5, %8
  br i1 %9, label %10, label %21

10:                                               ; preds = %4
  %11 = load ptr, ptr %2, align 8, !tbaa !74
  %12 = getelementptr inbounds nuw %struct.diffstat_t, ptr %11, i32 0, i32 2
  %13 = load ptr, ptr %12, align 8, !tbaa !79
  %14 = load i32, ptr %3, align 4, !tbaa !16
  %15 = sext i32 %14 to i64
  %16 = getelementptr inbounds ptr, ptr %13, i64 %15
  %17 = load ptr, ptr %16, align 8, !tbaa !80
  call void @free_diffstat_file(ptr noundef %17)
  br label %18

18:                                               ; preds = %10
  %19 = load i32, ptr %3, align 4, !tbaa !16
  %20 = add nsw i32 %19, 1
  store i32 %20, ptr %3, align 4, !tbaa !16
  br label %4, !llvm.loop !82

21:                                               ; preds = %4
  %22 = load ptr, ptr %2, align 8, !tbaa !74
  %23 = getelementptr inbounds nuw %struct.diffstat_t, ptr %22, i32 0, i32 2
  %24 = load ptr, ptr %23, align 8, !tbaa !79
  call void @free(ptr noundef %24) #10
  call void @llvm.lifetime.end.p0(i64 4, ptr %3) #10
  ret void
}