; Function Attrs: nounwind uwtable
define dso_local void @free_diffstat_info(ptr noundef readonly captures(none) %0) local_unnamed_addr #0 {
  %2 = load i32, ptr %0, align 8, !tbaa !66
  %3 = icmp sgt i32 %2, 0
  br i1 %3, label %.lr.ph, label %._crit_edge

.lr.ph:                                           ; preds = %1
  %4 = getelementptr inbounds nuw i8, ptr %0, i64 8
  br label %5

5:                                                ; preds = %.lr.ph, %5
  %indvars.iv = phi i64 [ 0, %.lr.ph ], [ %indvars.iv.next, %5 ]
  %6 = load ptr, ptr %4, align 8, !tbaa !69
  %7 = getelementptr inbounds nuw ptr, ptr %6, i64 %indvars.iv
  %8 = load ptr, ptr %7, align 8, !tbaa !70
  %9 = getelementptr inbounds nuw i8, ptr %8, i64 16
  %10 = load ptr, ptr %9, align 8, !tbaa !72
  tail call void @free(ptr noundef %10) #32
  %11 = getelementptr inbounds nuw i8, ptr %8, i64 8
  %12 = load ptr, ptr %11, align 8, !tbaa !74
  tail call void @free(ptr noundef %12) #32
  %13 = load ptr, ptr %8, align 8, !tbaa !75
  tail call void @free(ptr noundef %13) #32
  tail call void @free(ptr noundef %8) #32
  %indvars.iv.next = add nuw nsw i64 %indvars.iv, 1
  %14 = load i32, ptr %0, align 8, !tbaa !66
  %15 = sext i32 %14 to i64
  %16 = icmp slt i64 %indvars.iv.next, %15
  br i1 %16, label %5, label %._crit_edge, !llvm.loop !76

._crit_edge:                                      ; preds = %5, %1
  %17 = getelementptr inbounds nuw i8, ptr %0, i64 8
  %18 = load ptr, ptr %17, align 8, !tbaa !69
  tail call void @free(ptr noundef %18) #32
  ret void
}